target datalayout = "e-m:e-p270:32:32-p271:32:32-p272:64:64-i64:64-i128:128-f80:128-n8:16:32:64-S128"
target triple = "x86_64-pc-linux-gnu"

%"class.std::shared_ptr" = type { %"class.std::__shared_ptr" }
%"class.std::__shared_ptr" = type { ptr, %"class.std::__shared_count" }
%"class.std::__shared_count" = type { ptr }
%"class.Assimp::StreamWriter" = type { %"class.std::shared_ptr", i8, %"class.std::vector.6", i64 }
%"class.std::vector.6" = type { %"struct.std::_Vector_base.7" }
%"struct.std::_Vector_base.7" = type { %"struct.std::_Vector_base<unsigned char, std::allocator<unsigned char>>::_Vector_impl" }
%"struct.std::_Vector_base<unsigned char, std::allocator<unsigned char>>::_Vector_impl" = type { %"struct.std::_Vector_base<unsigned char, std::allocator<unsigned char>>::_Vector_impl_data" }
%"struct.std::_Vector_base<unsigned char, std::allocator<unsigned char>>::_Vector_impl_data" = type { ptr, ptr, ptr }
%"class.Assimp::(anonymous namespace)::ChunkWriter" = type { ptr, i64 }
%"struct.Assimp::Intern::Getter" = type { i8 }
%"struct.Assimp::Intern::ByteSwapper" = type { i8 }

; Function Attrs: mustprogress nounwind uwtable
define linkonce_odr hidden void @_ZN6Assimp6Intern11ByteSwapperIjLb0EEclEPj(ptr noundef nonnull align 1 dereferenceable(1) %0, ptr noundef %1) #3 comdat align 2 {
  %3 = alloca ptr, align 8
  %4 = alloca ptr, align 8
  store ptr %0, ptr %3, align 8
  store ptr %1, ptr %4, align 8
  ret void
}

; Function Attrs: mustprogress nounwind uwtable
define linkonce_odr noundef nonnull align 1 dereferenceable(1) ptr @_ZNSt6vectorIhSaIhEEixEm(ptr noundef nonnull align 8 dereferenceable(24) %0, i64 noundef %1) #3 comdat align 2 {
  %3 = alloca ptr, align 8
  %4 = alloca i64, align 8
  store ptr %0, ptr %3, align 8
  store i64 %1, ptr %4, align 8
  %5 = load ptr, ptr %3, align 8
  %6 = getelementptr inbounds nuw %"struct.std::_Vector_base.7", ptr %5, i32 0, i32 0
  %7 = getelementptr inbounds nuw %"struct.std::_Vector_base<unsigned char, std::allocator<unsigned char>>::_Vector_impl_data", ptr %6, i32 0, i32 0
  %8 = load ptr, ptr %7, align 8
  %9 = load i64, ptr %4, align 8
  %10 = getelementptr inbounds nuw i8, ptr %8, i64 %9
  ret ptr %10
}

; Function Attrs: mustprogress nounwind uwtable
define linkonce_odr noundef i64 @_ZNKSt6vectorIhSaIhEE4sizeEv(ptr noundef nonnull align 8 dereferenceable(24) %0) #3 comdat align 2 {
  %2 = alloca ptr, align 8
  store ptr %0, ptr %2, align 8
  %3 = load ptr, ptr %2, align 8
  %4 = getelementptr inbounds nuw %"struct.std::_Vector_base.7", ptr %3, i32 0, i32 0
  %5 = getelementptr inbounds nuw %"struct.std::_Vector_base<unsigned char, std::allocator<unsigned char>>::_Vector_impl_data", ptr %4, i32 0, i32 1
  %6 = load ptr, ptr %5, align 8
  %7 = getelementptr inbounds nuw %"struct.std::_Vector_base.7", ptr %3, i32 0, i32 0
  %8 = getelementptr inbounds nuw %"struct.std::_Vector_base<unsigned char, std::allocator<unsigned char>>::_Vector_impl_data", ptr %7, i32 0, i32 0
  %9 = load ptr, ptr %8, align 8
  %10 = ptrtoint ptr %6 to i64
  %11 = ptrtoint ptr %9 to i64
  %12 = sub i64 %10, %11
  ret i64 %12
}

; Function Attrs: mustprogress uwtable
define linkonce_odr hidden void @_ZN6Assimp6Intern6GetterILb0EjLb0EEclEPjb(ptr noundef nonnull align 1 dereferenceable(1) %0, ptr noundef %1, i1 noundef zeroext %2) #1 comdat align 2 {
  %4 = alloca ptr, align 8
  %5 = alloca ptr, align 8
  %6 = alloca i8, align 1
  %7 = alloca %"struct.Assimp::Intern::ByteSwapper", align 1
  store ptr %0, ptr %4, align 8
  store ptr %1, ptr %5, align 8
  %8 = zext i1 %2 to i8
  store i8 %8, ptr %6, align 1
  call void @llvm.lifetime.start.p0(i64 1, ptr %7) #20
  %9 = load ptr, ptr %5, align 8
  call void @_ZN6Assimp6Intern11ByteSwapperIjLb0EEclEPj(ptr noundef nonnull align 1 dereferenceable(1) %7, ptr noundef %9)
  call void @llvm.lifetime.end.p0(i64 1, ptr %7) #20
  ret void
}

; Function Attrs: mustprogress uwtable
define linkonce_odr hidden void @_ZN6Assimp12StreamWriterILb0ELb0EE3PutIjEEvT_(ptr noundef nonnull align 8 dereferenceable(56) %0, i32 noundef %1) #1 comdat align 2 {
  %3 = alloca ptr, align 8
  %4 = alloca i32, align 4
  %5 = alloca %"struct.Assimp::Intern::Getter", align 1
  %6 = alloca ptr, align 8
  store ptr %0, ptr %3, align 8
  store i32 %1, ptr %4, align 4
  %7 = load ptr, ptr %3, align 8
  call void @llvm.lifetime.start.p0(i64 1, ptr %5) #20
  %8 = getelementptr inbounds nuw %"class.Assimp::StreamWriter", ptr %7, i32 0, i32 1
  %9 = load i8, ptr %8, align 8, !range !3, !noundef !4
  %10 = trunc i8 %9 to i1
  call void @_ZN6Assimp6Intern6GetterILb0EjLb0EEclEPjb(ptr noundef nonnull align 1 dereferenceable(1) %5, ptr noundef %4, i1 noundef zeroext %10)
  call void @llvm.lifetime.end.p0(i64 1, ptr %5) #20
  %11 = getelementptr inbounds nuw %"class.Assimp::StreamWriter", ptr %7, i32 0, i32 3
  %12 = load i64, ptr %11, align 8
  %13 = add i64 %12, 4
  %14 = getelementptr inbounds nuw %"class.Assimp::StreamWriter", ptr %7, i32 0, i32 2
  %15 = call noundef i64 @_ZNKSt6vectorIhSaIhEE4sizeEv(ptr noundef nonnull align 8 dereferenceable(24) %14) #20
  %16 = icmp uge i64 %13, %15
  br i1 %16, label %17, label %22

17:                                               ; preds = %2
  %18 = getelementptr inbounds nuw %"class.Assimp::StreamWriter", ptr %7, i32 0, i32 2
  %19 = getelementptr inbounds nuw %"class.Assimp::StreamWriter", ptr %7, i32 0, i32 3
  %20 = load i64, ptr %19, align 8
  %21 = add i64 %20, 4
  call void @_ZNSt6vectorIhSaIhEE6resizeEm(ptr noundef nonnull align 8 dereferenceable(24) %18, i64 noundef %21)
  br label %22

22:                                               ; preds = %17, %2
  call void @llvm.lifetime.start.p0(i64 8, ptr %6) #20
  %23 = getelementptr inbounds nuw %"class.Assimp::StreamWriter", ptr %7, i32 0, i32 2
  %24 = getelementptr inbounds nuw %"class.Assimp::StreamWriter", ptr %7, i32 0, i32 3
  %25 = load i64, ptr %24, align 8
  %26 = call noundef nonnull align 1 dereferenceable(1) ptr @_ZNSt6vectorIhSaIhEEixEm(ptr noundef nonnull align 8 dereferenceable(24) %23, i64 noundef %25) #20
  store ptr %26, ptr %6, align 8
  %27 = load ptr, ptr %6, align 8
  call void @llvm.memcpy.p0.p0.i64(ptr align 1 %27, ptr align 4 %4, i64 4, i1 false)
  %28 = getelementptr inbounds nuw %"class.Assimp::StreamWriter", ptr %7, i32 0, i32 3
  %29 = load i64, ptr %28, align 8
  %30 = add i64 %29, 4
  store i64 %30, ptr %28, align 8
  call void @llvm.lifetime.end.p0(i64 8, ptr %6) #20
  ret void
}

; Function Attrs: mustprogress uwtable
define linkonce_odr hidden void @_ZN6Assimp12StreamWriterILb0ELb0EE5PutU4Ej(ptr noundef nonnull align 8 dereferenceable(56) %0, i32 noundef %1) #1 comdat align 2 {
  %3 = alloca ptr, align 8
  %4 = alloca i32, align 4
  store ptr %0, ptr %3, align 8
  store i32 %1, ptr %4, align 4
  %5 = load ptr, ptr %3, align 8
  %6 = load i32, ptr %4, align 4
  call void @_ZN6Assimp12StreamWriterILb0ELb0EE3PutIjEEvT_(ptr noundef nonnull align 8 dereferenceable(56) %5, i32 noundef %6)
  ret void
}

; Function Attrs: mustprogress nounwind uwtable
define linkonce_odr hidden void @_ZN6Assimp12StreamWriterILb0ELb0EE13SetCurrentPosEm(ptr noundef nonnull align 8 dereferenceable(56) %0, i64 noundef %1) #3 comdat align 2 {
  %3 = alloca ptr, align 8
  %4 = alloca i64, align 8
  store ptr %0, ptr %3, align 8
  store i64 %1, ptr %4, align 8
  %5 = load ptr, ptr %3, align 8
  %6 = load i64, ptr %4, align 8
  %7 = getelementptr inbounds nuw %"class.Assimp::StreamWriter", ptr %5, i32 0, i32 3
  store i64 %6, ptr %7, align 8
  ret void
}

; Function Attrs: mustprogress nounwind uwtable
define linkonce_odr hidden noundef i64 @_ZNK6Assimp12StreamWriterILb0ELb0EE13GetCurrentPosEv(ptr noundef nonnull align 8 dereferenceable(56) %0) #3 comdat align 2 {
  %2 = alloca ptr, align 8
  store ptr %0, ptr %2, align 8
  %3 = load ptr, ptr %2, align 8
  %4 = getelementptr inbounds nuw %"class.Assimp::StreamWriter", ptr %3, i32 0, i32 3
  %5 = load i64, ptr %4, align 8
  ret i64 %5
}

; Function Attrs: mustprogress nounwind uwtable
define internal void @_ZN6Assimp12_GLOBAL__N_111ChunkWriterD2Ev(ptr noundef nonnull align 8 dereferenceable(16) %0) unnamed_addr #3 align 2 personality ptr @__gxx_personality_v0 {
  %2 = alloca ptr, align 8
  %3 = alloca i64, align 8
  %4 = alloca i64, align 8
  store ptr %0, ptr %2, align 8
  %5 = load ptr, ptr %2, align 8
  call void @llvm.lifetime.start.p0(i64 8, ptr %3) #20
  %6 = getelementptr inbounds nuw %"class.Assimp::(anonymous namespace)::ChunkWriter", ptr %5, i32 0, i32 0
  %7 = load ptr, ptr %6, align 8
  %8 = call noundef i64 @_ZNK6Assimp12StreamWriterILb0ELb0EE13GetCurrentPosEv(ptr noundef nonnull align 8 dereferenceable(56) %7)
  store i64 %8, ptr %3, align 8
  call void @llvm.lifetime.start.p0(i64 8, ptr %4) #20
  %9 = load i64, ptr %3, align 8
  %10 = getelementptr inbounds nuw %"class.Assimp::(anonymous namespace)::ChunkWriter", ptr %5, i32 0, i32 1
  %11 = load i64, ptr %10, align 8
  %12 = sub i64 %9, %11
  store i64 %12, ptr %4, align 8
  %13 = getelementptr inbounds nuw %"class.Assimp::(anonymous namespace)::ChunkWriter", ptr %5, i32 0, i32 0
  %14 = load ptr, ptr %13, align 8
  %15 = getelementptr inbounds nuw %"class.Assimp::(anonymous namespace)::ChunkWriter", ptr %5, i32 0, i32 1
  %16 = load i64, ptr %15, align 8
  %17 = add i64 %16, 2
  invoke void @_ZN6Assimp12StreamWriterILb0ELb0EE13SetCurrentPosEm(ptr noundef nonnull align 8 dereferenceable(56) %14, i64 noundef %17)
          to label %18 unwind label %28

18:                                               ; preds = %1
  %19 = getelementptr inbounds nuw %"class.Assimp::(anonymous namespace)::ChunkWriter", ptr %5, i32 0, i32 0
  %20 = load ptr, ptr %19, align 8
  %21 = load i64, ptr %4, align 8
  %22 = trunc i64 %21 to i32
  invoke void @_ZN6Assimp12StreamWriterILb0ELb0EE5PutU4Ej(ptr noundef nonnull align 8 dereferenceable(56) %20, i32 noundef %22)
          to label %23 unwind label %28

23:                                               ; preds = %18
  %24 = getelementptr inbounds nuw %"class.Assimp::(anonymous namespace)::ChunkWriter", ptr %5, i32 0, i32 0
  %25 = load ptr, ptr %24, align 8
  %26 = load i64, ptr %3, align 8
  invoke void @_ZN6Assimp12StreamWriterILb0ELb0EE13SetCurrentPosEm(ptr noundef nonnull align 8 dereferenceable(56) %25, i64 noundef %26)
          to label %27 unwind label %28

27:                                               ; preds = %23
  call void @llvm.lifetime.end.p0(i64 8, ptr %4) #20
  call void @llvm.lifetime.end.p0(i64 8, ptr %3) #20
  ret void

28:                                               ; preds = %23, %18, %1
  %29 = landingpad { ptr, i32 }
          catch ptr null
  %30 = extractvalue { ptr, i32 } %29, 0
  call void @__clang_call_terminate(ptr %30) #22
  unreachable
}