; Function Attrs: mustprogress nounwind uwtable
define internal fastcc void @_ZN6Assimp12_GLOBAL__N_111ChunkWriterD2Ev(ptr %.0.val, i64 %.8.val) unnamed_addr #5 align 2 personality ptr @__gxx_personality_v0 {
  %1 = getelementptr inbounds nuw i8, ptr %.0.val, i64 48
  %2 = load i64, ptr %1, align 8
  %3 = add i64 %.8.val, 2
  store i64 %3, ptr %1, align 8
  %4 = add i64 %.8.val, 6
  %5 = getelementptr inbounds nuw i8, ptr %.0.val, i64 24
  %6 = getelementptr inbounds nuw i8, ptr %.0.val, i64 32
  %7 = load ptr, ptr %6, align 8
  %8 = load ptr, ptr %5, align 8
  %9 = ptrtoint ptr %7 to i64
  %10 = ptrtoint ptr %8 to i64
  %11 = sub i64 %9, %10
  %.not.i.i = icmp ult i64 %4, %11
  br i1 %.not.i.i, label %13, label %12

12:                                               ; preds = %0
  invoke void @_ZNSt6vectorIhSaIhEE6resizeEm(ptr noundef nonnull align 8 dereferenceable(24) %5, i64 noundef %4)
          to label %.noexc unwind label %19

.noexc:                                           ; preds = %12
  %.pre.i.i = load i64, ptr %1, align 8
  %.pre2.i.i = load ptr, ptr %5, align 8
  br label %13

13:                                               ; preds = %.noexc, %0
  %14 = phi ptr [ %.pre2.i.i, %.noexc ], [ %8, %0 ]
  %15 = phi i64 [ %.pre.i.i, %.noexc ], [ %3, %0 ]
  %16 = sub i64 %2, %.8.val
  %17 = trunc i64 %16 to i32
  %18 = getelementptr inbounds nuw i8, ptr %14, i64 %15
  store i32 %17, ptr %18, align 1
  store i64 %2, ptr %1, align 8
  ret void

19:                                               ; preds = %12
  %20 = landingpad { ptr, i32 }
          catch ptr null
  %21 = extractvalue { ptr, i32 } %20, 0
  tail call void @__clang_call_terminate(ptr %21) #26
  unreachable
}